; Function Attrs: mustprogress uwtable
define noundef zeroext i1 @_ZN7rocksdb28FaultInjectionSecondaryCache12ResultHandle7IsReadyEv(ptr noundef nonnull align 8 captures(none) dereferenceable(40) %0) unnamed_addr #0 align 2 {
  %2 = getelementptr inbounds nuw i8, ptr %0, i64 16
  %3 = load ptr, ptr %2, align 8, !tbaa !47
  %.not = icmp eq ptr %3, null
  br i1 %.not, label %10, label %4

4:                                                ; preds = %1
  %5 = load ptr, ptr %3, align 8, !tbaa !48
  %6 = getelementptr inbounds nuw i8, ptr %5, i64 16
  %7 = load ptr, ptr %6, align 8
  %8 = tail call noundef zeroext i1 %7(ptr noundef nonnull align 8 dereferenceable(8) %3)
  br i1 %8, label %9, label %10

9:                                                ; preds = %4
  tail call void @_ZN7rocksdb28FaultInjectionSecondaryCache12ResultHandle17UpdateHandleValueEPS1_(ptr noundef nonnull %0)
  br label %10

10:                                               ; preds = %4, %9, %1
  %.0.shrunk = phi i1 [ true, %9 ], [ false, %4 ], [ true, %1 ]
  ret i1 %.0.shrunk
}